target datalayout = "e-m:e-p270:32:32-p271:32:32-p272:64:64-i64:64-i128:128-f80:128-n8:16:32:64-S128"
target triple = "x86_64-pc-linux-gnu"

%struct.btMiniSDF = type { %struct.btAlignedBox3d, [3 x i32], %class.btVector3, %class.btVector3, i64, i64, i8, [7 x i8], %class.btAlignedObjectArray, %class.btAlignedObjectArray.0, %class.btAlignedObjectArray.2 }
%struct.btAlignedBox3d = type { %class.btVector3, %class.btVector3 }
%class.btVector3 = type { [4 x float] }
%class.btAlignedObjectArray = type <{ [4 x i8], i32, i32, [4 x i8], ptr, i8, [7 x i8] }>
%class.btAlignedObjectArray.0 = type <{ [4 x i8], i32, i32, [4 x i8], ptr, i8, [7 x i8] }>
%class.btAlignedObjectArray.2 = type <{ [4 x i8], i32, i32, [4 x i8], ptr, i8, [7 x i8] }>
%struct.btMultiIndex = type { [3 x i32] }

; Function Attrs: mustprogress nounwind uwtable
define dso_local { i64, i32 } @_ZNK9btMiniSDF18singleToMultiIndexEj(ptr noundef nonnull align 8 dereferenceable(200) %0, i32 noundef %1) #1 align 2 {
  %3 = alloca %struct.btMultiIndex, align 4
  %4 = alloca ptr, align 8
  %5 = alloca i32, align 4
  %6 = alloca i32, align 4
  %7 = alloca i32, align 4
  %8 = alloca i32, align 4
  %9 = alloca i32, align 4
  %10 = alloca i32, align 4
  %11 = alloca { i64, i32 }, align 8
  store ptr %0, ptr %4, align 8, !tbaa !12
  store i32 %1, ptr %5, align 4, !tbaa !9
  %12 = load ptr, ptr %4, align 8
  call void @llvm.lifetime.start.p0(i64 4, ptr %6) #12
  %13 = getelementptr inbounds nuw %struct.btMiniSDF, ptr %12, i32 0, i32 1
  %14 = getelementptr inbounds [3 x i32], ptr %13, i64 0, i64 0
  %15 = load i32, ptr %14, align 8, !tbaa !9
  %16 = getelementptr inbounds nuw %struct.btMiniSDF, ptr %12, i32 0, i32 1
  %17 = getelementptr inbounds [3 x i32], ptr %16, i64 0, i64 1
  %18 = load i32, ptr %17, align 4, !tbaa !9
  %19 = mul i32 %15, %18
  store i32 %19, ptr %6, align 4, !tbaa !9
  call void @llvm.lifetime.start.p0(i64 4, ptr %7) #12
  %20 = load i32, ptr %5, align 4, !tbaa !9
  %21 = load i32, ptr %6, align 4, !tbaa !9
  %22 = udiv i32 %20, %21
  store i32 %22, ptr %7, align 4, !tbaa !9
  call void @llvm.lifetime.start.p0(i64 4, ptr %8) #12
  %23 = load i32, ptr %5, align 4, !tbaa !9
  %24 = load i32, ptr %6, align 4, !tbaa !9
  %25 = urem i32 %23, %24
  store i32 %25, ptr %8, align 4, !tbaa !9
  call void @llvm.lifetime.start.p0(i64 4, ptr %9) #12
  %26 = load i32, ptr %8, align 4, !tbaa !9
  %27 = getelementptr inbounds nuw %struct.btMiniSDF, ptr %12, i32 0, i32 1
  %28 = getelementptr inbounds [3 x i32], ptr %27, i64 0, i64 0
  %29 = load i32, ptr %28, align 8, !tbaa !9
  %30 = udiv i32 %26, %29
  store i32 %30, ptr %9, align 4, !tbaa !9
  call void @llvm.lifetime.start.p0(i64 4, ptr %10) #12
  %31 = load i32, ptr %8, align 4, !tbaa !9
  %32 = getelementptr inbounds nuw %struct.btMiniSDF, ptr %12, i32 0, i32 1
  %33 = getelementptr inbounds [3 x i32], ptr %32, i64 0, i64 0
  %34 = load i32, ptr %33, align 8, !tbaa !9
  %35 = urem i32 %31, %34
  store i32 %35, ptr %10, align 4, !tbaa !9
  %36 = load i32, ptr %10, align 4, !tbaa !9
  %37 = getelementptr inbounds nuw %struct.btMultiIndex, ptr %3, i32 0, i32 0
  %38 = getelementptr inbounds [3 x i32], ptr %37, i64 0, i64 0
  store i32 %36, ptr %38, align 4, !tbaa !9
  %39 = load i32, ptr %9, align 4, !tbaa !9
  %40 = getelementptr inbounds nuw %struct.btMultiIndex, ptr %3, i32 0, i32 0
  %41 = getelementptr inbounds [3 x i32], ptr %40, i64 0, i64 1
  store i32 %39, ptr %41, align 4, !tbaa !9
  %42 = load i32, ptr %7, align 4, !tbaa !9
  %43 = getelementptr inbounds nuw %struct.btMultiIndex, ptr %3, i32 0, i32 0
  %44 = getelementptr inbounds [3 x i32], ptr %43, i64 0, i64 2
  store i32 %42, ptr %44, align 4, !tbaa !9
  call void @llvm.lifetime.end.p0(i64 4, ptr %10) #12
  call void @llvm.lifetime.end.p0(i64 4, ptr %9) #12
  call void @llvm.lifetime.end.p0(i64 4, ptr %8) #12
  call void @llvm.lifetime.end.p0(i64 4, ptr %7) #12
  call void @llvm.lifetime.end.p0(i64 4, ptr %6) #12
  %45 = getelementptr inbounds nuw %struct.btMultiIndex, ptr %3, i32 0, i32 0
  call void @llvm.memcpy.p0.p0.i64(ptr align 8 %11, ptr align 4 %45, i64 12, i1 false)
  %46 = load { i64, i32 }, ptr %11, align 8
  ret { i64, i32 } %46
}