; Function Attrs: mustprogress nofree norecurse nosync nounwind willreturn memory(argmem: read) uwtable
define dso_local { i64, i32 } @_ZNK9btMiniSDF18singleToMultiIndexEj(ptr noundef nonnull readonly align 8 captures(none) dereferenceable(200) %0, i32 noundef %1) local_unnamed_addr #5 align 2 {
  %3 = getelementptr inbounds nuw i8, ptr %0, i64 32
  %4 = load i32, ptr %3, align 8, !tbaa !8
  %5 = getelementptr inbounds nuw i8, ptr %0, i64 36
  %6 = load i32, ptr %5, align 4, !tbaa !8
  %7 = mul i32 %6, %4
  %8 = udiv i32 %1, %7
  %9 = urem i32 %1, %7
  %10 = udiv i32 %9, %4
  %11 = urem i32 %9, %4
  %.sroa.210.0.insert.ext = zext i32 %10 to i64
  %.sroa.210.0.insert.shift = shl nuw i64 %.sroa.210.0.insert.ext, 32
  %.sroa.09.0.insert.ext = zext i32 %11 to i64
  %.sroa.09.0.insert.insert = or disjoint i64 %.sroa.210.0.insert.shift, %.sroa.09.0.insert.ext
  %.fca.0.insert = insertvalue { i64, i32 } poison, i64 %.sroa.09.0.insert.insert, 0
  %.fca.1.insert = insertvalue { i64, i32 } %.fca.0.insert, i32 %8, 1
  ret { i64, i32 } %.fca.1.insert
}